; Function Attrs: mustprogress uwtable
define noundef double @_ZNK8QuantLib20ForwardRateAgreement6amountEv(ptr noundef nonnull align 8 dereferenceable(304) %this) local_unnamed_addr #6 align 2 {
entry:
  %vtable = load ptr, ptr %this, align 8, !tbaa !35
  %vfn = getelementptr inbounds i8, ptr %vtable, i64 24
  %0 = load ptr, ptr %vfn, align 8
  tail call void %0(ptr noundef nonnull align 8 dereferenceable(104) %this)
  %amount_ = getelementptr inbounds nuw i8, ptr %this, i64 296
  %1 = load double, ptr %amount_, align 8, !tbaa !110
  ret double %1
}